; Function Attrs: nounwind uwtable
define ptr @_ZnwmRKSt9nothrow_t(i64 noundef %0, ptr noundef readnone captures(none) %1) local_unnamed_addr #3 {
  %3 = tail call align 8 ptr @llvm.threadlocal.address.p0(ptr align 8 @_mi_heap_default)
  %4 = load ptr, ptr %3, align 8, !tbaa !3
  %5 = icmp ult i64 %0, 1025
  br i1 %5, label %6, label %mi_malloc.exit.i, !prof !8

6:                                                ; preds = %2
  %7 = add nuw nsw i64 %0, 7
  %8 = lshr i64 %7, 3
  %9 = getelementptr inbounds nuw i8, ptr %4, i64 232
  %10 = getelementptr inbounds nuw [129 x ptr], ptr %9, i64 0, i64 %8
  %11 = load ptr, ptr %10, align 8, !tbaa !9
  %12 = getelementptr inbounds nuw i8, ptr %11, i64 16
  %13 = load ptr, ptr %12, align 8, !tbaa !11
  %14 = icmp eq ptr %13, null
  br i1 %14, label %mi_malloc.exit.i, label %mi_malloc.exit.thread.i, !prof !18

mi_malloc.exit.thread.i:                          ; preds = %6
  %.val.i.i.i.i.i.i.i = load i64, ptr %13, align 8, !tbaa !19
  %15 = inttoptr i64 %.val.i.i.i.i.i.i.i to ptr
  store ptr %15, ptr %12, align 8, !tbaa !11
  %16 = getelementptr inbounds nuw i8, ptr %11, i64 32
  %17 = load i16, ptr %16, align 8, !tbaa !21
  %18 = add i16 %17, 1
  store i16 %18, ptr %16, align 8, !tbaa !21
  br label %mi_new_nothrow.exit

mi_malloc.exit.i:                                 ; preds = %6, %2
  %19 = tail call noalias ptr @_mi_malloc_generic(ptr noundef %4, i64 noundef %0, i1 noundef zeroext false, i64 noundef 0) #19
  %20 = icmp eq ptr %19, null
  br i1 %20, label %21, label %mi_new_nothrow.exit, !prof !26

21:                                               ; preds = %mi_malloc.exit.i
  %22 = tail call fastcc ptr @mi_try_new(i64 noundef %0) #20
  br label %mi_new_nothrow.exit

mi_new_nothrow.exit:                              ; preds = %mi_malloc.exit.thread.i, %mi_malloc.exit.i, %21
  %.0.i = phi ptr [ %22, %21 ], [ %19, %mi_malloc.exit.i ], [ %13, %mi_malloc.exit.thread.i ]
  ret ptr %.0.i
}